; Function Attrs: mustprogress nofree norecurse nosync nounwind memory(read, argmem: readwrite, inaccessiblemem: none) uwtable
define void @_ZN6colvar9inertia_z10calc_valueEv(ptr noundef nonnull align 8 captures(none) dereferenceable(1640) initializes((600, 608)) %0) unnamed_addr #10 align 2 {
  %2 = getelementptr inbounds nuw i8, ptr %0, i64 600
  store double 0.000000e+00, ptr %2, align 8, !tbaa !98
  %3 = getelementptr inbounds nuw i8, ptr %0, i64 1608
  %4 = load ptr, ptr %3, align 8, !tbaa !324
  %5 = getelementptr inbounds nuw i8, ptr %4, i64 504
  %6 = load ptr, ptr %5, align 8, !tbaa !249
  %7 = getelementptr inbounds nuw i8, ptr %4, i64 512
  %8 = load ptr, ptr %7, align 8, !tbaa !249
  %.not6 = icmp eq ptr %6, %8
  br i1 %.not6, label %15, label %.lr.ph

.lr.ph:                                           ; preds = %1
  %9 = getelementptr inbounds nuw i8, ptr %0, i64 1616
  %10 = load double, ptr %9, align 8, !tbaa !95
  %11 = getelementptr inbounds nuw i8, ptr %0, i64 1624
  %12 = load double, ptr %11, align 8, !tbaa !96
  %13 = getelementptr inbounds nuw i8, ptr %0, i64 1632
  %14 = load double, ptr %13, align 8, !tbaa !97
  br label %16

._crit_edge:                                      ; preds = %16
  store double %27, ptr %2, align 8, !tbaa !98
  br label %15

15:                                               ; preds = %._crit_edge, %1
  ret void

16:                                               ; preds = %.lr.ph, %16
  %.sroa.03.07 = phi ptr [ %6, %.lr.ph ], [ %28, %16 ]
  %17 = phi double [ 0.000000e+00, %.lr.ph ], [ %27, %16 ]
  %18 = getelementptr inbounds nuw i8, ptr %.sroa.03.07, i64 24
  %19 = load double, ptr %18, align 8, !tbaa !95
  %20 = getelementptr inbounds nuw i8, ptr %.sroa.03.07, i64 32
  %21 = load double, ptr %20, align 8, !tbaa !96
  %22 = fmul double %21, %12
  %23 = tail call double @llvm.fmuladd.f64(double %19, double %10, double %22)
  %24 = getelementptr inbounds nuw i8, ptr %.sroa.03.07, i64 40
  %25 = load double, ptr %24, align 8, !tbaa !97
  %26 = tail call noundef double @llvm.fmuladd.f64(double %25, double %14, double %23)
  %27 = tail call double @llvm.fmuladd.f64(double %26, double %26, double %17)
  %28 = getelementptr inbounds nuw i8, ptr %.sroa.03.07, i64 120
  %.not = icmp eq ptr %28, %8
  br i1 %.not, label %._crit_edge, label %16, !llvm.loop !355
}